; Function Attrs: nounwind uwtable
define zeroext i8 @l___private_Lean_Meta_LevelDefEq_0__Lean_Meta_strictOccursMax(ptr noundef %0, ptr noundef %1) local_unnamed_addr #0 {
  %3 = ptrtoint ptr %1 to i64
  %4 = and i64 %3, 1
  %.not.i = icmp eq i64 %4, 0
  br i1 %.not.i, label %8, label %5

5:                                                ; preds = %2
  %6 = lshr i64 %3, 1
  %7 = trunc i64 %6 to i32
  br label %lean_obj_tag.exit

8:                                                ; preds = %2
  %9 = getelementptr i8, ptr %1, i64 4
  %.val.i = load i32, ptr %9, align 4
  %10 = lshr i32 %.val.i, 24
  br label %lean_obj_tag.exit

lean_obj_tag.exit:                                ; preds = %5, %8
  %.0.i = phi i32 [ %7, %5 ], [ %10, %8 ]
  %11 = icmp eq i32 %.0.i, 2
  br i1 %11, label %12, label %21

12:                                               ; preds = %lean_obj_tag.exit
  %13 = getelementptr inbounds nuw i8, ptr %1, i64 8
  %14 = load ptr, ptr %13, align 8, !tbaa !4
  %15 = getelementptr inbounds nuw i8, ptr %1, i64 16
  %16 = load ptr, ptr %15, align 8, !tbaa !4
  %17 = tail call zeroext i8 @l___private_Lean_Meta_LevelDefEq_0__Lean_Meta_strictOccursMax_visit(ptr noundef %0, ptr noundef %14)
  %18 = icmp eq i8 %17, 0
  br i1 %18, label %19, label %21

19:                                               ; preds = %12
  %20 = tail call zeroext i8 @l___private_Lean_Meta_LevelDefEq_0__Lean_Meta_strictOccursMax_visit(ptr noundef %0, ptr noundef %16)
  br label %21

21:                                               ; preds = %lean_obj_tag.exit, %19, %12
  %.1 = phi i8 [ %20, %19 ], [ 1, %12 ], [ 0, %lean_obj_tag.exit ]
  ret i8 %.1
}